target datalayout = "e-m:e-p270:32:32-p271:32:32-p272:64:64-i64:64-i128:128-f80:128-n8:16:32:64-S128"
target triple = "x86_64-pc-linux-gnu"

%"class.std::__cxx11::basic_string" = type { %"struct.std::__cxx11::basic_string<char>::_Alloc_hider", i64, %union.anon }
%"struct.std::__cxx11::basic_string<char>::_Alloc_hider" = type { ptr }
%union.anon = type { i64, [8 x i8] }

; Function Attrs: noinline noreturn nounwind uwtable
define linkonce_odr hidden void @__clang_call_terminate(ptr noundef %0) #10 comdat {
  %2 = call ptr @__cxa_begin_catch(ptr %0) #5
  call void @_ZSt9terminatev() #21
  unreachable
}

; Function Attrs: mustprogress nounwind uwtable
define available_externally noundef ptr @_ZNKSt7__cxx1112basic_stringIcSt11char_traitsIcESaIcEE7_M_dataEv(ptr noundef nonnull align 8 dereferenceable(32) %0) #2 align 2 {
  %2 = alloca ptr, align 8
  store ptr %0, ptr %2, align 8, !tbaa !13
  %3 = load ptr, ptr %2, align 8
  %4 = getelementptr inbounds nuw %"class.std::__cxx11::basic_string", ptr %3, i32 0, i32 0
  %5 = getelementptr inbounds nuw %"struct.std::__cxx11::basic_string<char>::_Alloc_hider", ptr %4, i32 0, i32 0
  %6 = load ptr, ptr %5, align 8, !tbaa !184
  ret ptr %6
}

; Function Attrs: mustprogress nounwind uwtable
define available_externally noundef nonnull align 1 dereferenceable(1) ptr @_ZNKSt7__cxx1112basic_stringIcSt11char_traitsIcESaIcEEixEm(ptr noundef nonnull align 8 dereferenceable(32) %0, i64 noundef %1) #2 align 2 personality ptr @__gxx_personality_v0 {
  %3 = alloca ptr, align 8
  %4 = alloca i64, align 8
  store ptr %0, ptr %3, align 8, !tbaa !13
  store i64 %1, ptr %4, align 8, !tbaa !9
  %5 = load ptr, ptr %3, align 8
  br label %6

6:                                                ; preds = %2
  br label %7

7:                                                ; preds = %6
  br label %8

8:                                                ; preds = %7
  %9 = invoke noundef ptr @_ZNKSt7__cxx1112basic_stringIcSt11char_traitsIcESaIcEE7_M_dataEv(ptr noundef nonnull align 8 dereferenceable(32) %5)
          to label %10 unwind label %13

10:                                               ; preds = %8
  %11 = load i64, ptr %4, align 8, !tbaa !9
  %12 = getelementptr inbounds nuw i8, ptr %9, i64 %11
  ret ptr %12

13:                                               ; preds = %8
  %14 = landingpad { ptr, i32 }
          catch ptr null
  %15 = extractvalue { ptr, i32 } %14, 0
  call void @__clang_call_terminate(ptr %15) #21
  unreachable
}

; Function Attrs: mustprogress nounwind uwtable
define available_externally noundef ptr @_ZNKSt7__cxx1112basic_stringIcSt11char_traitsIcESaIcEE4dataEv(ptr noundef nonnull align 8 dereferenceable(32) %0) #2 align 2 {
  %2 = alloca ptr, align 8
  store ptr %0, ptr %2, align 8, !tbaa !13
  %3 = load ptr, ptr %2, align 8
  %4 = call noundef ptr @_ZNKSt7__cxx1112basic_stringIcSt11char_traitsIcESaIcEE7_M_dataEv(ptr noundef nonnull align 8 dereferenceable(32) %3)
  ret ptr %4
}

; Function Attrs: mustprogress nounwind uwtable
define internal noundef zeroext i1 @_ZN7rocksdb12_GLOBAL__N_114MatchesDecimalERKNSt7__cxx1112basic_stringIcSt11char_traitsIcESaIcEEEmm(ptr noundef nonnull align 8 dereferenceable(32) %0, i64 noundef %1, i64 noundef %2) #2 {
  %4 = alloca i1, align 1
  %5 = alloca ptr, align 8
  %6 = alloca i64, align 8
  %7 = alloca i64, align 8
  %8 = alloca i32, align 4
  %9 = alloca i8, align 1
  %10 = alloca i32, align 4
  store ptr %0, ptr %5, align 8, !tbaa !13
  store i64 %1, ptr %6, align 8, !tbaa !9
  store i64 %2, ptr %7, align 8, !tbaa !9
  call void @llvm.lifetime.start.p0(i64 4, ptr %8) #5
  store i32 0, ptr %8, align 4, !tbaa !19
  %11 = load ptr, ptr %5, align 8, !tbaa !13
  %12 = load i64, ptr %6, align 8, !tbaa !9
  %13 = call noundef nonnull align 1 dereferenceable(1) ptr @_ZNKSt7__cxx1112basic_stringIcSt11char_traitsIcESaIcEEixEm(ptr noundef nonnull align 8 dereferenceable(32) %11, i64 noundef %12) #5
  %14 = load i8, ptr %13, align 1, !tbaa !21
  %15 = sext i8 %14 to i32
  %16 = icmp eq i32 %15, 45
  br i1 %16, label %17, label %20

17:                                               ; preds = %3
  %18 = load i64, ptr %6, align 8, !tbaa !9
  %19 = add i64 %18, 1
  store i64 %19, ptr %6, align 8, !tbaa !9
  br label %20

20:                                               ; preds = %17, %3
  call void @llvm.lifetime.start.p0(i64 1, ptr %9) #5
  store i8 0, ptr %9, align 1, !tbaa !24
  br label %21

21:                                               ; preds = %53, %20
  %22 = load i64, ptr %6, align 8, !tbaa !9
  %23 = load i64, ptr %7, align 8, !tbaa !9
  %24 = icmp ult i64 %22, %23
  br i1 %24, label %26, label %25

25:                                               ; preds = %21
  store i32 2, ptr %10, align 4
  br label %56

26:                                               ; preds = %21
  %27 = load ptr, ptr %5, align 8, !tbaa !13
  %28 = load i64, ptr %6, align 8, !tbaa !9
  %29 = call noundef nonnull align 1 dereferenceable(1) ptr @_ZNKSt7__cxx1112basic_stringIcSt11char_traitsIcESaIcEEixEm(ptr noundef nonnull align 8 dereferenceable(32) %27, i64 noundef %28) #5
  %30 = load i8, ptr %29, align 1, !tbaa !21
  %31 = sext i8 %30 to i32
  %32 = icmp eq i32 %31, 46
  br i1 %32, label %33, label %39

33:                                               ; preds = %26
  %34 = load i8, ptr %9, align 1, !tbaa !24, !range !26, !noundef !27
  %35 = trunc i8 %34 to i1
  br i1 %35, label %36, label %37

36:                                               ; preds = %33
  store i1 false, ptr %4, align 1
  store i32 1, ptr %10, align 4
  br label %56

37:                                               ; preds = %33
  store i8 1, ptr %9, align 1, !tbaa !24
  br label %38

38:                                               ; preds = %37
  br label %52

39:                                               ; preds = %26
  %40 = load ptr, ptr %5, align 8, !tbaa !13
  %41 = load i64, ptr %6, align 8, !tbaa !9
  %42 = call noundef nonnull align 1 dereferenceable(1) ptr @_ZNKSt7__cxx1112basic_stringIcSt11char_traitsIcESaIcEEixEm(ptr noundef nonnull align 8 dereferenceable(32) %40, i64 noundef %41) #5
  %43 = load i8, ptr %42, align 1, !tbaa !21
  %44 = sext i8 %43 to i32
  %45 = call i32 @isdigit(i32 noundef %44) #20
  %46 = icmp ne i32 %45, 0
  br i1 %46, label %48, label %47

47:                                               ; preds = %39
  store i1 false, ptr %4, align 1
  store i32 1, ptr %10, align 4
  br label %56

48:                                               ; preds = %39
  %49 = load i32, ptr %8, align 4, !tbaa !19
  %50 = add nsw i32 %49, 1
  store i32 %50, ptr %8, align 4, !tbaa !19
  br label %51

51:                                               ; preds = %48
  br label %52

52:                                               ; preds = %51, %38
  br label %53

53:                                               ; preds = %52
  %54 = load i64, ptr %6, align 8, !tbaa !9
  %55 = add i64 %54, 1
  store i64 %55, ptr %6, align 8, !tbaa !9
  br label %21, !llvm.loop !28

56:                                               ; preds = %47, %36, %25
  call void @llvm.lifetime.end.p0(i64 1, ptr %9) #5
  %57 = load i32, ptr %10, align 4
  switch i32 %57, label %61 [
    i32 2, label %58
  ]

58:                                               ; preds = %56
  %59 = load i32, ptr %8, align 4, !tbaa !19
  %60 = icmp sgt i32 %59, 0
  store i1 %60, ptr %4, align 1
  store i32 1, ptr %10, align 4
  br label %61

61:                                               ; preds = %58, %56
  call void @llvm.lifetime.end.p0(i64 4, ptr %8) #5
  %62 = load i1, ptr %4, align 1
  ret i1 %62
}

; Function Attrs: mustprogress nounwind uwtable
define internal noundef zeroext i1 @_ZN7rocksdb12_GLOBAL__N_114MatchesIntegerERKNSt7__cxx1112basic_stringIcSt11char_traitsIcESaIcEEEmm(ptr noundef nonnull align 8 dereferenceable(32) %0, i64 noundef %1, i64 noundef %2) #2 {
  %4 = alloca i1, align 1
  %5 = alloca ptr, align 8
  %6 = alloca i64, align 8
  %7 = alloca i64, align 8
  %8 = alloca i32, align 4
  %9 = alloca i32, align 4
  store ptr %0, ptr %5, align 8, !tbaa !13
  store i64 %1, ptr %6, align 8, !tbaa !9
  store i64 %2, ptr %7, align 8, !tbaa !9
  call void @llvm.lifetime.start.p0(i64 4, ptr %8) #5
  store i32 0, ptr %8, align 4, !tbaa !19
  %10 = load ptr, ptr %5, align 8, !tbaa !13
  %11 = load i64, ptr %6, align 8, !tbaa !9
  %12 = call noundef nonnull align 1 dereferenceable(1) ptr @_ZNKSt7__cxx1112basic_stringIcSt11char_traitsIcESaIcEEixEm(ptr noundef nonnull align 8 dereferenceable(32) %10, i64 noundef %11) #5
  %13 = load i8, ptr %12, align 1, !tbaa !21
  %14 = sext i8 %13 to i32
  %15 = icmp eq i32 %14, 45
  br i1 %15, label %16, label %19

16:                                               ; preds = %3
  %17 = load i64, ptr %6, align 8, !tbaa !9
  %18 = add i64 %17, 1
  store i64 %18, ptr %6, align 8, !tbaa !9
  br label %19

19:                                               ; preds = %16, %3
  br label %20

20:                                               ; preds = %37, %19
  %21 = load i64, ptr %6, align 8, !tbaa !9
  %22 = load i64, ptr %7, align 8, !tbaa !9
  %23 = icmp ult i64 %21, %22
  br i1 %23, label %24, label %38

24:                                               ; preds = %20
  %25 = load ptr, ptr %5, align 8, !tbaa !13
  %26 = load i64, ptr %6, align 8, !tbaa !9
  %27 = add i64 %26, 1
  store i64 %27, ptr %6, align 8, !tbaa !9
  %28 = call noundef nonnull align 1 dereferenceable(1) ptr @_ZNKSt7__cxx1112basic_stringIcSt11char_traitsIcESaIcEEixEm(ptr noundef nonnull align 8 dereferenceable(32) %25, i64 noundef %26) #5
  %29 = load i8, ptr %28, align 1, !tbaa !21
  %30 = sext i8 %29 to i32
  %31 = call i32 @isdigit(i32 noundef %30) #20
  %32 = icmp ne i32 %31, 0
  br i1 %32, label %34, label %33

33:                                               ; preds = %24
  store i1 false, ptr %4, align 1
  store i32 1, ptr %9, align 4
  br label %41

34:                                               ; preds = %24
  %35 = load i32, ptr %8, align 4, !tbaa !19
  %36 = add nsw i32 %35, 1
  store i32 %36, ptr %8, align 4, !tbaa !19
  br label %37

37:                                               ; preds = %34
  br label %20, !llvm.loop !22

38:                                               ; preds = %20
  %39 = load i32, ptr %8, align 4, !tbaa !19
  %40 = icmp sgt i32 %39, 0
  store i1 %40, ptr %4, align 1
  store i32 1, ptr %9, align 4
  br label %41

41:                                               ; preds = %38, %33
  call void @llvm.lifetime.end.p0(i64 4, ptr %8) #5
  %42 = load i1, ptr %4, align 1
  ret i1 %42
}

; Function Attrs: mustprogress nounwind uwtable
define available_externally noundef i64 @_ZNKSt7__cxx1112basic_stringIcSt11char_traitsIcESaIcEE4findERKS4_m(ptr noundef nonnull align 8 dereferenceable(32) %0, ptr noundef nonnull align 8 dereferenceable(32) %1, i64 noundef %2) #2 align 2 {
  %4 = alloca ptr, align 8
  %5 = alloca ptr, align 8
  %6 = alloca i64, align 8
  store ptr %0, ptr %4, align 8, !tbaa !13
  store ptr %1, ptr %5, align 8, !tbaa !13
  store i64 %2, ptr %6, align 8, !tbaa !9
  %7 = load ptr, ptr %4, align 8
  %8 = load ptr, ptr %5, align 8, !tbaa !13
  %9 = call noundef ptr @_ZNKSt7__cxx1112basic_stringIcSt11char_traitsIcESaIcEE4dataEv(ptr noundef nonnull align 8 dereferenceable(32) %8) #5
  %10 = load i64, ptr %6, align 8, !tbaa !9
  %11 = load ptr, ptr %5, align 8, !tbaa !13
  %12 = call noundef i64 @_ZNKSt7__cxx1112basic_stringIcSt11char_traitsIcESaIcEE4sizeEv(ptr noundef nonnull align 8 dereferenceable(32) %11) #5
  %13 = call noundef i64 @_ZNKSt7__cxx1112basic_stringIcSt11char_traitsIcESaIcEE4findEPKcmm(ptr noundef nonnull align 8 dereferenceable(32) %7, ptr noundef %9, i64 noundef %10, i64 noundef %12) #5
  ret i64 %13
}

; Function Attrs: mustprogress nounwind uwtable
define available_externally noundef zeroext i1 @_ZNKSt7__cxx1112basic_stringIcSt11char_traitsIcESaIcEE5emptyEv(ptr noundef nonnull align 8 dereferenceable(32) %0) #2 align 2 {
  %2 = alloca ptr, align 8
  store ptr %0, ptr %2, align 8, !tbaa !13
  %3 = load ptr, ptr %2, align 8
  %4 = call noundef i64 @_ZNKSt7__cxx1112basic_stringIcSt11char_traitsIcESaIcEE4sizeEv(ptr noundef nonnull align 8 dereferenceable(32) %3) #5
  %5 = icmp eq i64 %4, 0
  ret i1 %5
}

; Function Attrs: mustprogress nounwind uwtable
define available_externally noundef i64 @_ZNKSt7__cxx1112basic_stringIcSt11char_traitsIcESaIcEE4sizeEv(ptr noundef nonnull align 8 dereferenceable(32) %0) #2 align 2 {
  %2 = alloca ptr, align 8
  store ptr %0, ptr %2, align 8, !tbaa !13
  %3 = load ptr, ptr %2, align 8
  %4 = getelementptr inbounds nuw %"class.std::__cxx11::basic_string", ptr %3, i32 0, i32 1
  %5 = load i64, ptr %4, align 8, !tbaa !15
  ret i64 %5
}

; Function Attrs: mustprogress uwtable
define noundef i64 @_ZNK7rocksdb13ObjectLibrary12PatternEntry16MatchSeparatorAtEmNS1_10QuantifierERKNSt7__cxx1112basic_stringIcSt11char_traitsIcESaIcEEEmSA_(ptr noundef nonnull align 8 dereferenceable(112) %0, i64 noundef %1, i32 noundef %2, ptr noundef nonnull align 8 dereferenceable(32) %3, i64 noundef %4, ptr noundef nonnull align 8 dereferenceable(32) %5) #0 align 2 {
  %7 = alloca i64, align 8
  %8 = alloca ptr, align 8
  %9 = alloca i64, align 8
  %10 = alloca i32, align 4
  %11 = alloca ptr, align 8
  %12 = alloca i64, align 8
  %13 = alloca ptr, align 8
  %14 = alloca i64, align 8
  %15 = alloca i32, align 4
  %16 = alloca i64, align 8
  store ptr %0, ptr %8, align 8, !tbaa !4
  store i64 %1, ptr %9, align 8, !tbaa !9
  store i32 %2, ptr %10, align 4, !tbaa !11
  store ptr %3, ptr %11, align 8, !tbaa !13
  store i64 %4, ptr %12, align 8, !tbaa !9
  store ptr %5, ptr %13, align 8, !tbaa !13
  call void @llvm.lifetime.start.p0(i64 8, ptr %14) #5
  %17 = load ptr, ptr %13, align 8, !tbaa !13
  %18 = call noundef i64 @_ZNKSt7__cxx1112basic_stringIcSt11char_traitsIcESaIcEE4sizeEv(ptr noundef nonnull align 8 dereferenceable(32) %17) #5
  store i64 %18, ptr %14, align 8, !tbaa !9
  %19 = load i64, ptr %12, align 8, !tbaa !9
  %20 = load i64, ptr %9, align 8, !tbaa !9
  %21 = load i64, ptr %14, align 8, !tbaa !9
  %22 = add i64 %20, %21
  %23 = icmp ult i64 %19, %22
  br i1 %23, label %24, label %25

24:                                               ; preds = %6
  store i64 -1, ptr %7, align 8
  store i32 1, ptr %15, align 4
  br label %82

25:                                               ; preds = %6
  %26 = load i32, ptr %10, align 4, !tbaa !11
  %27 = icmp eq i32 %26, 2
  br i1 %27, label %28, label %40

28:                                               ; preds = %25
  %29 = load ptr, ptr %11, align 8, !tbaa !13
  %30 = load i64, ptr %9, align 8, !tbaa !9
  %31 = load i64, ptr %14, align 8, !tbaa !9
  %32 = load ptr, ptr %13, align 8, !tbaa !13
  %33 = call noundef i32 @_ZNKSt7__cxx1112basic_stringIcSt11char_traitsIcESaIcEE7compareEmmRKS4_(ptr noundef nonnull align 8 dereferenceable(32) %29, i64 noundef %30, i64 noundef %31, ptr noundef nonnull align 8 dereferenceable(32) %32)
  %34 = icmp ne i32 %33, 0
  br i1 %34, label %35, label %36

35:                                               ; preds = %28
  store i64 -1, ptr %7, align 8
  store i32 1, ptr %15, align 4
  br label %82

36:                                               ; preds = %28
  %37 = load i64, ptr %9, align 8, !tbaa !9
  %38 = load i64, ptr %14, align 8, !tbaa !9
  %39 = add i64 %37, %38
  store i64 %39, ptr %7, align 8
  store i32 1, ptr %15, align 4
  br label %82

40:                                               ; preds = %25
  call void @llvm.lifetime.start.p0(i64 8, ptr %16) #5
  %41 = load i64, ptr %9, align 8, !tbaa !9
  %42 = add i64 %41, 1
  store i64 %42, ptr %16, align 8, !tbaa !9
  %43 = load ptr, ptr %13, align 8, !tbaa !13
  %44 = call noundef zeroext i1 @_ZNKSt7__cxx1112basic_stringIcSt11char_traitsIcESaIcEE5emptyEv(ptr noundef nonnull align 8 dereferenceable(32) %43) #5
  br i1 %44, label %50, label %45

45:                                               ; preds = %40
  %46 = load ptr, ptr %11, align 8, !tbaa !13
  %47 = load ptr, ptr %13, align 8, !tbaa !13
  %48 = load i64, ptr %16, align 8, !tbaa !9
  %49 = call noundef i64 @_ZNKSt7__cxx1112basic_stringIcSt11char_traitsIcESaIcEE4findERKS4_m(ptr noundef nonnull align 8 dereferenceable(32) %46, ptr noundef nonnull align 8 dereferenceable(32) %47, i64 noundef %48) #5
  store i64 %49, ptr %16, align 8, !tbaa !9
  br label %50

50:                                               ; preds = %45, %40
  %51 = load i64, ptr %16, align 8, !tbaa !9
  %52 = icmp eq i64 %51, -1
  br i1 %52, label %53, label %55

53:                                               ; preds = %50
  %54 = load i64, ptr %16, align 8, !tbaa !9
  store i64 %54, ptr %7, align 8
  store i32 1, ptr %15, align 4
  br label %81

55:                                               ; preds = %50
  %56 = load i32, ptr %10, align 4, !tbaa !11
  %57 = icmp eq i32 %56, 3
  br i1 %57, label %58, label %65

58:                                               ; preds = %55
  %59 = load ptr, ptr %11, align 8, !tbaa !13
  %60 = load i64, ptr %9, align 8, !tbaa !9
  %61 = load i64, ptr %16, align 8, !tbaa !9
  %62 = call noundef zeroext i1 @_ZN7rocksdb12_GLOBAL__N_114MatchesIntegerERKNSt7__cxx1112basic_stringIcSt11char_traitsIcESaIcEEEmm(ptr noundef nonnull align 8 dereferenceable(32) %59, i64 noundef %60, i64 noundef %61)
  br i1 %62, label %64, label %63

63:                                               ; preds = %58
  store i64 -1, ptr %7, align 8
  store i32 1, ptr %15, align 4
  br label %81

64:                                               ; preds = %58
  br label %76

65:                                               ; preds = %55
  %66 = load i32, ptr %10, align 4, !tbaa !11
  %67 = icmp eq i32 %66, 4
  br i1 %67, label %68, label %75

68:                                               ; preds = %65
  %69 = load ptr, ptr %11, align 8, !tbaa !13
  %70 = load i64, ptr %9, align 8, !tbaa !9
  %71 = load i64, ptr %16, align 8, !tbaa !9
  %72 = call noundef zeroext i1 @_ZN7rocksdb12_GLOBAL__N_114MatchesDecimalERKNSt7__cxx1112basic_stringIcSt11char_traitsIcESaIcEEEmm(ptr noundef nonnull align 8 dereferenceable(32) %69, i64 noundef %70, i64 noundef %71)
  br i1 %72, label %74, label %73

73:                                               ; preds = %68
  store i64 -1, ptr %7, align 8
  store i32 1, ptr %15, align 4
  br label %81

74:                                               ; preds = %68
  br label %75

75:                                               ; preds = %74, %65
  br label %76

76:                                               ; preds = %75, %64
  br label %77

77:                                               ; preds = %76
  %78 = load i64, ptr %16, align 8, !tbaa !9
  %79 = load i64, ptr %14, align 8, !tbaa !9
  %80 = add i64 %78, %79
  store i64 %80, ptr %7, align 8
  store i32 1, ptr %15, align 4
  br label %81

81:                                               ; preds = %77, %73, %63, %53
  call void @llvm.lifetime.end.p0(i64 8, ptr %16) #5
  br label %82

82:                                               ; preds = %81, %36, %35, %24
  call void @llvm.lifetime.end.p0(i64 8, ptr %14) #5
  %83 = load i64, ptr %7, align 8
  ret i64 %83
}