; Function Attrs: mustprogress uwtable
define noundef i64 @_ZNK7rocksdb13ObjectLibrary12PatternEntry16MatchSeparatorAtEmNS1_10QuantifierERKNSt7__cxx1112basic_stringIcSt11char_traitsIcESaIcEEEmSA_(ptr nonnull readnone align 8 captures(none) %0, i64 noundef %1, i32 noundef %2, ptr noundef nonnull align 8 dereferenceable(32) %3, i64 noundef %4, ptr noundef nonnull align 8 dereferenceable(32) %5) local_unnamed_addr #0 align 2 personality ptr @__gxx_personality_v0 {
  %7 = getelementptr inbounds nuw i8, ptr %5, i64 8
  %8 = load i64, ptr %7, align 8, !tbaa !4
  %9 = add i64 %8, %1
  %10 = icmp ult i64 %4, %9
  br i1 %10, label %_ZN7rocksdb12_GLOBAL__N_114MatchesIntegerERKNSt7__cxx1112basic_stringIcSt11char_traitsIcESaIcEEEmm.exit.thread, label %11

11:                                               ; preds = %6
  %12 = icmp eq i32 %2, 2
  br i1 %12, label %13, label %15

13:                                               ; preds = %11
  %14 = tail call noundef i32 @_ZNKSt7__cxx1112basic_stringIcSt11char_traitsIcESaIcEE7compareEmmRKS4_(ptr noundef nonnull align 8 dereferenceable(32) %3, i64 noundef %1, i64 noundef %8, ptr noundef nonnull align 8 dereferenceable(32) %5)
  %.not = icmp eq i32 %14, 0
  %. = select i1 %.not, i64 %9, i64 -1
  br label %_ZN7rocksdb12_GLOBAL__N_114MatchesIntegerERKNSt7__cxx1112basic_stringIcSt11char_traitsIcESaIcEEEmm.exit.thread

15:                                               ; preds = %11
  %16 = add i64 %1, 1
  %17 = icmp eq i64 %8, 0
  br i1 %17, label %21, label %18

18:                                               ; preds = %15
  %19 = load ptr, ptr %5, align 8, !tbaa !12
  %20 = tail call noundef i64 @_ZNKSt7__cxx1112basic_stringIcSt11char_traitsIcESaIcEE4findEPKcmm(ptr noundef nonnull align 8 dereferenceable(32) %3, ptr noundef %19, i64 noundef %16, i64 noundef %8) #23
  br label %21

21:                                               ; preds = %18, %15
  %.0 = phi i64 [ %16, %15 ], [ %20, %18 ]
  %22 = icmp eq i64 %.0, -1
  br i1 %22, label %_ZN7rocksdb12_GLOBAL__N_114MatchesIntegerERKNSt7__cxx1112basic_stringIcSt11char_traitsIcESaIcEEEmm.exit.thread, label %23

23:                                               ; preds = %21
  switch i32 %2, label %_ZN7rocksdb12_GLOBAL__N_114MatchesIntegerERKNSt7__cxx1112basic_stringIcSt11char_traitsIcESaIcEEEmm.exit [
    i32 3, label %24
    i32 4, label %36
  ]

24:                                               ; preds = %23
  %.val = load ptr, ptr %3, align 8, !tbaa !12
  %25 = getelementptr inbounds nuw i8, ptr %.val, i64 %1
  %26 = load i8, ptr %25, align 1, !tbaa !13
  %27 = icmp eq i8 %26, 45
  %28 = zext i1 %27 to i64
  %spec.select.i = add i64 %1, %28
  %29 = icmp ult i64 %spec.select.i, %.0
  br i1 %29, label %.lr.ph.i, label %_ZN7rocksdb12_GLOBAL__N_114MatchesIntegerERKNSt7__cxx1112basic_stringIcSt11char_traitsIcESaIcEEEmm.exit.thread

.lr.ph.i:                                         ; preds = %24, %33
  %.12.i = phi i64 [ %34, %33 ], [ %spec.select.i, %24 ]
  %30 = getelementptr inbounds nuw i8, ptr %.val, i64 %.12.i
  %31 = load i8, ptr %30, align 1, !tbaa !13
  %32 = sext i8 %31 to i32
  %isdigittmp.i = add nsw i32 %32, -48
  %isdigit.i = icmp ult i32 %isdigittmp.i, 10
  br i1 %isdigit.i, label %33, label %_ZN7rocksdb12_GLOBAL__N_114MatchesIntegerERKNSt7__cxx1112basic_stringIcSt11char_traitsIcESaIcEEEmm.exit.thread

33:                                               ; preds = %.lr.ph.i
  %34 = add nuw i64 %.12.i, 1
  %35 = icmp ult i64 %34, %.0
  br i1 %35, label %.lr.ph.i, label %_ZN7rocksdb12_GLOBAL__N_114MatchesIntegerERKNSt7__cxx1112basic_stringIcSt11char_traitsIcESaIcEEEmm.exit, !llvm.loop !14

36:                                               ; preds = %23
  %.val31 = load ptr, ptr %3, align 8, !tbaa !12
  %37 = getelementptr inbounds nuw i8, ptr %.val31, i64 %1
  %38 = load i8, ptr %37, align 1, !tbaa !13
  %39 = icmp eq i8 %38, 45
  %40 = zext i1 %39 to i64
  %spec.select.i32 = add i64 %1, %40
  %.not1.not.i = icmp ult i64 %spec.select.i32, %.0
  br i1 %.not1.not.i, label %.lr.ph.i33, label %_ZN7rocksdb12_GLOBAL__N_114MatchesIntegerERKNSt7__cxx1112basic_stringIcSt11char_traitsIcESaIcEEEmm.exit.thread

.lr.ph.i33:                                       ; preds = %36, %49
  %.0144.i = phi i1 [ %.1.i, %49 ], [ false, %36 ]
  %.0153.i = phi i32 [ %.116.i, %49 ], [ 0, %36 ]
  %.1202.i = phi i64 [ %50, %49 ], [ %spec.select.i32, %36 ]
  %41 = getelementptr inbounds nuw i8, ptr %.val31, i64 %.1202.i
  %42 = load i8, ptr %41, align 1, !tbaa !13
  %43 = icmp eq i8 %42, 46
  br i1 %43, label %44, label %45

44:                                               ; preds = %.lr.ph.i33
  br i1 %.0144.i, label %_ZN7rocksdb12_GLOBAL__N_114MatchesIntegerERKNSt7__cxx1112basic_stringIcSt11char_traitsIcESaIcEEEmm.exit.thread, label %49

45:                                               ; preds = %.lr.ph.i33
  %46 = sext i8 %42 to i32
  %isdigittmp.i34 = add nsw i32 %46, -48
  %isdigit.i35 = icmp ult i32 %isdigittmp.i34, 10
  br i1 %isdigit.i35, label %47, label %_ZN7rocksdb12_GLOBAL__N_114MatchesIntegerERKNSt7__cxx1112basic_stringIcSt11char_traitsIcESaIcEEEmm.exit.thread

47:                                               ; preds = %45
  %48 = add nsw i32 %.0153.i, 1
  br label %49

49:                                               ; preds = %47, %44
  %.116.i = phi i32 [ %48, %47 ], [ %.0153.i, %44 ]
  %.1.i = phi i1 [ %.0144.i, %47 ], [ true, %44 ]
  %50 = add nuw i64 %.1202.i, 1
  %.not.not.i = icmp ult i64 %50, %.0
  br i1 %.not.not.i, label %.lr.ph.i33, label %_ZN7rocksdb12_GLOBAL__N_114MatchesDecimalERKNSt7__cxx1112basic_stringIcSt11char_traitsIcESaIcEEEmm.exit, !llvm.loop !16

_ZN7rocksdb12_GLOBAL__N_114MatchesDecimalERKNSt7__cxx1112basic_stringIcSt11char_traitsIcESaIcEEEmm.exit: ; preds = %49
  %51 = icmp sgt i32 %.116.i, 0
  br i1 %51, label %_ZN7rocksdb12_GLOBAL__N_114MatchesIntegerERKNSt7__cxx1112basic_stringIcSt11char_traitsIcESaIcEEEmm.exit, label %_ZN7rocksdb12_GLOBAL__N_114MatchesIntegerERKNSt7__cxx1112basic_stringIcSt11char_traitsIcESaIcEEEmm.exit.thread

_ZN7rocksdb12_GLOBAL__N_114MatchesIntegerERKNSt7__cxx1112basic_stringIcSt11char_traitsIcESaIcEEEmm.exit: ; preds = %33, %23, %_ZN7rocksdb12_GLOBAL__N_114MatchesDecimalERKNSt7__cxx1112basic_stringIcSt11char_traitsIcESaIcEEEmm.exit
  %52 = add i64 %.0, %8
  br label %_ZN7rocksdb12_GLOBAL__N_114MatchesIntegerERKNSt7__cxx1112basic_stringIcSt11char_traitsIcESaIcEEEmm.exit.thread

_ZN7rocksdb12_GLOBAL__N_114MatchesIntegerERKNSt7__cxx1112basic_stringIcSt11char_traitsIcESaIcEEEmm.exit.thread: ; preds = %45, %44, %.lr.ph.i, %36, %24, %_ZN7rocksdb12_GLOBAL__N_114MatchesIntegerERKNSt7__cxx1112basic_stringIcSt11char_traitsIcESaIcEEEmm.exit, %21, %_ZN7rocksdb12_GLOBAL__N_114MatchesDecimalERKNSt7__cxx1112basic_stringIcSt11char_traitsIcESaIcEEEmm.exit, %13, %6
  %.028 = phi i64 [ -1, %6 ], [ %., %13 ], [ %52, %_ZN7rocksdb12_GLOBAL__N_114MatchesIntegerERKNSt7__cxx1112basic_stringIcSt11char_traitsIcESaIcEEEmm.exit ], [ -1, %21 ], [ -1, %_ZN7rocksdb12_GLOBAL__N_114MatchesDecimalERKNSt7__cxx1112basic_stringIcSt11char_traitsIcESaIcEEEmm.exit ], [ -1, %24 ], [ -1, %36 ], [ -1, %.lr.ph.i ], [ -1, %44 ], [ -1, %45 ]
  ret i64 %.028
}